target datalayout = "e-m:e-p270:32:32-p271:32:32-p272:64:64-i64:64-i128:128-f80:128-n8:16:32:64-S128"
target triple = "x86_64-unknown-linux-gnu"

%"class.std::__cxx11::basic_string" = type { %"struct.std::__cxx11::basic_string<char>::_Alloc_hider", i64, %union.anon }
%"struct.std::__cxx11::basic_string<char>::_Alloc_hider" = type { ptr }
%union.anon = type { i64, [8 x i8] }
%"class.glTF2::Asset" = type { %"class.std::vector.35", %"struct.glTF2::Asset::Extensions", %"struct.glTF2::Asset::RequiredExtensions", %"struct.glTF2::AssetMetadata", ptr, %"class.glTF2::LazyDict", %"class.glTF2::LazyDict.60", %"class.glTF2::LazyDict.66", %"class.glTF2::LazyDict.72", %"class.glTF2::LazyDict.78", %"class.glTF2::LazyDict.84", %"class.glTF2::LazyDict.90", %"class.glTF2::LazyDict.96", %"class.glTF2::LazyDict.102", %"class.glTF2::LazyDict.108", %"class.glTF2::LazyDict.114", %"class.glTF2::LazyDict.120", %"class.glTF2::LazyDict.126", %"class.glTF2::LazyDict.132", %"class.glTFCommon::Ref", ptr, ptr, %"class.std::__cxx11::basic_string", i64, i64, i64, %"class.std::map.138", %"class.glTFCommon::Ref.143" }
%"class.std::vector.35" = type { %"struct.std::_Vector_base.36" }
%"struct.std::_Vector_base.36" = type { %"struct.std::_Vector_base<glTF2::LazyDictBase *, std::allocator<glTF2::LazyDictBase *>>::_Vector_impl" }
%"struct.std::_Vector_base<glTF2::LazyDictBase *, std::allocator<glTF2::LazyDictBase *>>::_Vector_impl" = type { %"struct.std::_Vector_base<glTF2::LazyDictBase *, std::allocator<glTF2::LazyDictBase *>>::_Vector_impl_data" }
%"struct.std::_Vector_base<glTF2::LazyDictBase *, std::allocator<glTF2::LazyDictBase *>>::_Vector_impl_data" = type { ptr, ptr, ptr }
%"struct.glTF2::Asset::Extensions" = type { i8, i8, i8, i8, i8, i8, i8, i8, i8, i8, i8, i8, i8, i8 }
%"struct.glTF2::Asset::RequiredExtensions" = type { i8, i8 }
%"struct.glTF2::AssetMetadata" = type { %"class.std::__cxx11::basic_string", %"class.std::__cxx11::basic_string", %struct.anon, %"class.std::__cxx11::basic_string" }
%struct.anon = type { %"class.std::__cxx11::basic_string", %"class.std::__cxx11::basic_string" }
%"class.glTF2::LazyDict" = type { %"class.glTF2::LazyDictBase", %"class.std::vector.40", %"class.std::map", %"class.std::map.48", ptr, ptr, ptr, ptr, %"class.std::set" }
%"class.glTF2::LazyDictBase" = type { ptr }
%"class.std::vector.40" = type { %"struct.std::_Vector_base.41" }
%"struct.std::_Vector_base.41" = type { %"struct.std::_Vector_base<glTF2::Accessor *, std::allocator<glTF2::Accessor *>>::_Vector_impl" }
%"struct.std::_Vector_base<glTF2::Accessor *, std::allocator<glTF2::Accessor *>>::_Vector_impl" = type { %"struct.std::_Vector_base<glTF2::Accessor *, std::allocator<glTF2::Accessor *>>::_Vector_impl_data" }
%"struct.std::_Vector_base<glTF2::Accessor *, std::allocator<glTF2::Accessor *>>::_Vector_impl_data" = type { ptr, ptr, ptr }
%"class.std::map" = type { %"class.std::_Rb_tree" }
%"class.std::_Rb_tree" = type { %"struct.std::_Rb_tree<unsigned int, std::pair<const unsigned int, unsigned int>, std::_Select1st<std::pair<const unsigned int, unsigned int>>, std::less<unsigned int>>::_Rb_tree_impl" }
%"struct.std::_Rb_tree<unsigned int, std::pair<const unsigned int, unsigned int>, std::_Select1st<std::pair<const unsigned int, unsigned int>>, std::less<unsigned int>>::_Rb_tree_impl" = type { %"struct.std::_Rb_tree_key_compare", %"struct.std::_Rb_tree_header" }
%"struct.std::_Rb_tree_key_compare" = type { %"struct.std::less" }
%"struct.std::less" = type { i8 }
%"struct.std::_Rb_tree_header" = type { %"struct.std::_Rb_tree_node_base", i64 }
%"struct.std::_Rb_tree_node_base" = type { i32, ptr, ptr, ptr }
%"class.std::map.48" = type { %"class.std::_Rb_tree.49" }
%"class.std::_Rb_tree.49" = type { %"struct.std::_Rb_tree<std::__cxx11::basic_string<char>, std::pair<const std::__cxx11::basic_string<char>, unsigned int>, std::_Select1st<std::pair<const std::__cxx11::basic_string<char>, unsigned int>>, std::less<std::__cxx11::basic_string<char>>>::_Rb_tree_impl" }
%"struct.std::_Rb_tree<std::__cxx11::basic_string<char>, std::pair<const std::__cxx11::basic_string<char>, unsigned int>, std::_Select1st<std::pair<const std::__cxx11::basic_string<char>, unsigned int>>, std::less<std::__cxx11::basic_string<char>>>::_Rb_tree_impl" = type { %"struct.std::_Rb_tree_key_compare.53", %"struct.std::_Rb_tree_header" }
%"struct.std::_Rb_tree_key_compare.53" = type { %"struct.std::less.54" }
%"struct.std::less.54" = type { i8 }
%"class.std::set" = type { %"class.std::_Rb_tree.56" }
%"class.std::_Rb_tree.56" = type { %"struct.std::_Rb_tree<unsigned int, unsigned int, std::_Identity<unsigned int>, std::less<unsigned int>>::_Rb_tree_impl" }
%"struct.std::_Rb_tree<unsigned int, unsigned int, std::_Identity<unsigned int>, std::less<unsigned int>>::_Rb_tree_impl" = type { %"struct.std::_Rb_tree_key_compare", %"struct.std::_Rb_tree_header" }
%"class.glTF2::LazyDict.60" = type { %"class.glTF2::LazyDictBase", %"class.std::vector.61", %"class.std::map", %"class.std::map.48", ptr, ptr, ptr, ptr, %"class.std::set" }
%"class.std::vector.61" = type { %"struct.std::_Vector_base.62" }
%"struct.std::_Vector_base.62" = type { %"struct.std::_Vector_base<glTF2::Animation *, std::allocator<glTF2::Animation *>>::_Vector_impl" }
%"struct.std::_Vector_base<glTF2::Animation *, std::allocator<glTF2::Animation *>>::_Vector_impl" = type { %"struct.std::_Vector_base<glTF2::Animation *, std::allocator<glTF2::Animation *>>::_Vector_impl_data" }
%"struct.std::_Vector_base<glTF2::Animation *, std::allocator<glTF2::Animation *>>::_Vector_impl_data" = type { ptr, ptr, ptr }
%"class.glTF2::LazyDict.66" = type { %"class.glTF2::LazyDictBase", %"class.std::vector.67", %"class.std::map", %"class.std::map.48", ptr, ptr, ptr, ptr, %"class.std::set" }
%"class.std::vector.67" = type { %"struct.std::_Vector_base.68" }
%"struct.std::_Vector_base.68" = type { %"struct.std::_Vector_base<glTF2::Buffer *, std::allocator<glTF2::Buffer *>>::_Vector_impl" }
%"struct.std::_Vector_base<glTF2::Buffer *, std::allocator<glTF2::Buffer *>>::_Vector_impl" = type { %"struct.std::_Vector_base<glTF2::Buffer *, std::allocator<glTF2::Buffer *>>::_Vector_impl_data" }
%"struct.std::_Vector_base<glTF2::Buffer *, std::allocator<glTF2::Buffer *>>::_Vector_impl_data" = type { ptr, ptr, ptr }
%"class.glTF2::LazyDict.72" = type { %"class.glTF2::LazyDictBase", %"class.std::vector.73", %"class.std::map", %"class.std::map.48", ptr, ptr, ptr, ptr, %"class.std::set" }
%"class.std::vector.73" = type { %"struct.std::_Vector_base.74" }
%"struct.std::_Vector_base.74" = type { %"struct.std::_Vector_base<glTF2::BufferView *, std::allocator<glTF2::BufferView *>>::_Vector_impl" }
%"struct.std::_Vector_base<glTF2::BufferView *, std::allocator<glTF2::BufferView *>>::_Vector_impl" = type { %"struct.std::_Vector_base<glTF2::BufferView *, std::allocator<glTF2::BufferView *>>::_Vector_impl_data" }
%"struct.std::_Vector_base<glTF2::BufferView *, std::allocator<glTF2::BufferView *>>::_Vector_impl_data" = type { ptr, ptr, ptr }
%"class.glTF2::LazyDict.78" = type { %"class.glTF2::LazyDictBase", %"class.std::vector.79", %"class.std::map", %"class.std::map.48", ptr, ptr, ptr, ptr, %"class.std::set" }
%"class.std::vector.79" = type { %"struct.std::_Vector_base.80" }
%"struct.std::_Vector_base.80" = type { %"struct.std::_Vector_base<glTF2::Camera *, std::allocator<glTF2::Camera *>>::_Vector_impl" }
%"struct.std::_Vector_base<glTF2::Camera *, std::allocator<glTF2::Camera *>>::_Vector_impl" = type { %"struct.std::_Vector_base<glTF2::Camera *, std::allocator<glTF2::Camera *>>::_Vector_impl_data" }
%"struct.std::_Vector_base<glTF2::Camera *, std::allocator<glTF2::Camera *>>::_Vector_impl_data" = type { ptr, ptr, ptr }
%"class.glTF2::LazyDict.84" = type { %"class.glTF2::LazyDictBase", %"class.std::vector.85", %"class.std::map", %"class.std::map.48", ptr, ptr, ptr, ptr, %"class.std::set" }
%"class.std::vector.85" = type { %"struct.std::_Vector_base.86" }
%"struct.std::_Vector_base.86" = type { %"struct.std::_Vector_base<glTF2::Light *, std::allocator<glTF2::Light *>>::_Vector_impl" }
%"struct.std::_Vector_base<glTF2::Light *, std::allocator<glTF2::Light *>>::_Vector_impl" = type { %"struct.std::_Vector_base<glTF2::Light *, std::allocator<glTF2::Light *>>::_Vector_impl_data" }
%"struct.std::_Vector_base<glTF2::Light *, std::allocator<glTF2::Light *>>::_Vector_impl_data" = type { ptr, ptr, ptr }
%"class.glTF2::LazyDict.90" = type { %"class.glTF2::LazyDictBase", %"class.std::vector.91", %"class.std::map", %"class.std::map.48", ptr, ptr, ptr, ptr, %"class.std::set" }
%"class.std::vector.91" = type { %"struct.std::_Vector_base.92" }
%"struct.std::_Vector_base.92" = type { %"struct.std::_Vector_base<glTF2::Image *, std::allocator<glTF2::Image *>>::_Vector_impl" }
%"struct.std::_Vector_base<glTF2::Image *, std::allocator<glTF2::Image *>>::_Vector_impl" = type { %"struct.std::_Vector_base<glTF2::Image *, std::allocator<glTF2::Image *>>::_Vector_impl_data" }
%"struct.std::_Vector_base<glTF2::Image *, std::allocator<glTF2::Image *>>::_Vector_impl_data" = type { ptr, ptr, ptr }
%"class.glTF2::LazyDict.96" = type { %"class.glTF2::LazyDictBase", %"class.std::vector.97", %"class.std::map", %"class.std::map.48", ptr, ptr, ptr, ptr, %"class.std::set" }
%"class.std::vector.97" = type { %"struct.std::_Vector_base.98" }
%"struct.std::_Vector_base.98" = type { %"struct.std::_Vector_base<glTF2::Material *, std::allocator<glTF2::Material *>>::_Vector_impl" }
%"struct.std::_Vector_base<glTF2::Material *, std::allocator<glTF2::Material *>>::_Vector_impl" = type { %"struct.std::_Vector_base<glTF2::Material *, std::allocator<glTF2::Material *>>::_Vector_impl_data" }
%"struct.std::_Vector_base<glTF2::Material *, std::allocator<glTF2::Material *>>::_Vector_impl_data" = type { ptr, ptr, ptr }
%"class.glTF2::LazyDict.102" = type { %"class.glTF2::LazyDictBase", %"class.std::vector.103", %"class.std::map", %"class.std::map.48", ptr, ptr, ptr, ptr, %"class.std::set" }
%"class.std::vector.103" = type { %"struct.std::_Vector_base.104" }
%"struct.std::_Vector_base.104" = type { %"struct.std::_Vector_base<glTF2::Mesh *, std::allocator<glTF2::Mesh *>>::_Vector_impl" }
%"struct.std::_Vector_base<glTF2::Mesh *, std::allocator<glTF2::Mesh *>>::_Vector_impl" = type { %"struct.std::_Vector_base<glTF2::Mesh *, std::allocator<glTF2::Mesh *>>::_Vector_impl_data" }
%"struct.std::_Vector_base<glTF2::Mesh *, std::allocator<glTF2::Mesh *>>::_Vector_impl_data" = type { ptr, ptr, ptr }
%"class.glTF2::LazyDict.108" = type { %"class.glTF2::LazyDictBase", %"class.std::vector.109", %"class.std::map", %"class.std::map.48", ptr, ptr, ptr, ptr, %"class.std::set" }
%"class.std::vector.109" = type { %"struct.std::_Vector_base.110" }
%"struct.std::_Vector_base.110" = type { %"struct.std::_Vector_base<glTF2::Node *, std::allocator<glTF2::Node *>>::_Vector_impl" }
%"struct.std::_Vector_base<glTF2::Node *, std::allocator<glTF2::Node *>>::_Vector_impl" = type { %"struct.std::_Vector_base<glTF2::Node *, std::allocator<glTF2::Node *>>::_Vector_impl_data" }
%"struct.std::_Vector_base<glTF2::Node *, std::allocator<glTF2::Node *>>::_Vector_impl_data" = type { ptr, ptr, ptr }
%"class.glTF2::LazyDict.114" = type { %"class.glTF2::LazyDictBase", %"class.std::vector.115", %"class.std::map", %"class.std::map.48", ptr, ptr, ptr, ptr, %"class.std::set" }
%"class.std::vector.115" = type { %"struct.std::_Vector_base.116" }
%"struct.std::_Vector_base.116" = type { %"struct.std::_Vector_base<glTF2::Sampler *, std::allocator<glTF2::Sampler *>>::_Vector_impl" }
%"struct.std::_Vector_base<glTF2::Sampler *, std::allocator<glTF2::Sampler *>>::_Vector_impl" = type { %"struct.std::_Vector_base<glTF2::Sampler *, std::allocator<glTF2::Sampler *>>::_Vector_impl_data" }
%"struct.std::_Vector_base<glTF2::Sampler *, std::allocator<glTF2::Sampler *>>::_Vector_impl_data" = type { ptr, ptr, ptr }
%"class.glTF2::LazyDict.120" = type { %"class.glTF2::LazyDictBase", %"class.std::vector.121", %"class.std::map", %"class.std::map.48", ptr, ptr, ptr, ptr, %"class.std::set" }
%"class.std::vector.121" = type { %"struct.std::_Vector_base.122" }
%"struct.std::_Vector_base.122" = type { %"struct.std::_Vector_base<glTF2::Scene *, std::allocator<glTF2::Scene *>>::_Vector_impl" }
%"struct.std::_Vector_base<glTF2::Scene *, std::allocator<glTF2::Scene *>>::_Vector_impl" = type { %"struct.std::_Vector_base<glTF2::Scene *, std::allocator<glTF2::Scene *>>::_Vector_impl_data" }
%"struct.std::_Vector_base<glTF2::Scene *, std::allocator<glTF2::Scene *>>::_Vector_impl_data" = type { ptr, ptr, ptr }
%"class.glTF2::LazyDict.126" = type { %"class.glTF2::LazyDictBase", %"class.std::vector.127", %"class.std::map", %"class.std::map.48", ptr, ptr, ptr, ptr, %"class.std::set" }
%"class.std::vector.127" = type { %"struct.std::_Vector_base.128" }
%"struct.std::_Vector_base.128" = type { %"struct.std::_Vector_base<glTF2::Skin *, std::allocator<glTF2::Skin *>>::_Vector_impl" }
%"struct.std::_Vector_base<glTF2::Skin *, std::allocator<glTF2::Skin *>>::_Vector_impl" = type { %"struct.std::_Vector_base<glTF2::Skin *, std::allocator<glTF2::Skin *>>::_Vector_impl_data" }
%"struct.std::_Vector_base<glTF2::Skin *, std::allocator<glTF2::Skin *>>::_Vector_impl_data" = type { ptr, ptr, ptr }
%"class.glTF2::LazyDict.132" = type { %"class.glTF2::LazyDictBase", %"class.std::vector.133", %"class.std::map", %"class.std::map.48", ptr, ptr, ptr, ptr, %"class.std::set" }
%"class.std::vector.133" = type { %"struct.std::_Vector_base.134" }
%"struct.std::_Vector_base.134" = type { %"struct.std::_Vector_base<glTF2::Texture *, std::allocator<glTF2::Texture *>>::_Vector_impl" }
%"struct.std::_Vector_base<glTF2::Texture *, std::allocator<glTF2::Texture *>>::_Vector_impl" = type { %"struct.std::_Vector_base<glTF2::Texture *, std::allocator<glTF2::Texture *>>::_Vector_impl_data" }
%"struct.std::_Vector_base<glTF2::Texture *, std::allocator<glTF2::Texture *>>::_Vector_impl_data" = type { ptr, ptr, ptr }
%"class.glTFCommon::Ref" = type <{ ptr, i32, [4 x i8] }>
%"class.std::map.138" = type { %"class.std::_Rb_tree.139" }
%"class.std::_Rb_tree.139" = type { %"struct.std::_Rb_tree<std::__cxx11::basic_string<char>, std::pair<const std::__cxx11::basic_string<char>, int>, std::_Select1st<std::pair<const std::__cxx11::basic_string<char>, int>>, std::less<std::__cxx11::basic_string<char>>>::_Rb_tree_impl" }
%"struct.std::_Rb_tree<std::__cxx11::basic_string<char>, std::pair<const std::__cxx11::basic_string<char>, int>, std::_Select1st<std::pair<const std::__cxx11::basic_string<char>, int>>, std::less<std::__cxx11::basic_string<char>>>::_Rb_tree_impl" = type { %"struct.std::_Rb_tree_key_compare.53", %"struct.std::_Rb_tree_header" }
%"class.glTFCommon::Ref.143" = type <{ ptr, i32, [4 x i8] }>

@.str = private unnamed_addr constant [5 x i8] c"gltf\00", align 1
@.str.1 = private unnamed_addr constant [4 x i8] c"glb\00", align 1
@.str.2 = private unnamed_addr constant [5 x i8] c"glTF\00", align 1

; Function Attrs: mustprogress nounwind uwtable
define linkonce_odr noundef zeroext i1 @_ZSteqIcSt11char_traitsIcESaIcEEbRKNSt7__cxx1112basic_stringIT_T0_T1_EEPKS5_(ptr noundef nonnull align 8 dereferenceable(32) %__lhs, ptr noundef %__rhs) #0 comdat {
entry:
  %__lhs.addr = alloca ptr, align 8
  %__rhs.addr = alloca ptr, align 8
  store ptr %__lhs, ptr %__lhs.addr, align 8
  store ptr %__rhs, ptr %__rhs.addr, align 8
  %0 = load ptr, ptr %__lhs.addr, align 8
  %1 = load ptr, ptr %__rhs.addr, align 8
  %call = call noundef i32 @_ZNKSt7__cxx1112basic_stringIcSt11char_traitsIcESaIcEE7compareEPKc(ptr noundef nonnull align 8 dereferenceable(32) %0, ptr noundef %1) #10
  %cmp = icmp eq i32 %call, 0
  ret i1 %cmp
}

; Function Attrs: mustprogress nounwind uwtable
define linkonce_odr noundef zeroext i1 @_ZStneIcSt11char_traitsIcESaIcEEbRKNSt7__cxx1112basic_stringIT_T0_T1_EEPKS5_(ptr noundef nonnull align 8 dereferenceable(32) %__lhs, ptr noundef %__rhs) #0 comdat {
entry:
  %__lhs.addr = alloca ptr, align 8
  %__rhs.addr = alloca ptr, align 8
  store ptr %__lhs, ptr %__lhs.addr, align 8
  store ptr %__rhs, ptr %__rhs.addr, align 8
  %0 = load ptr, ptr %__lhs.addr, align 8
  %1 = load ptr, ptr %__rhs.addr, align 8
  %call = call noundef zeroext i1 @_ZSteqIcSt11char_traitsIcESaIcEEbRKNSt7__cxx1112basic_stringIT_T0_T1_EEPKS5_(ptr noundef nonnull align 8 dereferenceable(32) %0, ptr noundef %1)
  %lnot = xor i1 %call, true
  ret i1 %lnot
}

; Function Attrs: mustprogress uwtable
define hidden noundef zeroext i1 @_ZNK6Assimp13glTF2Importer7CanReadERKNSt7__cxx1112basic_stringIcSt11char_traitsIcESaIcEEEPNS_8IOSystemEb(ptr noundef nonnull align 8 dereferenceable(160) %this, ptr noundef nonnull align 8 dereferenceable(32) %filename, ptr noundef %pIOHandler, i1 noundef zeroext %checkSig) unnamed_addr #4 align 2 personality ptr @__gxx_personality_v0 {
entry:
  %retval = alloca i1, align 1
  %this.addr = alloca ptr, align 8
  %filename.addr = alloca ptr, align 8
  %pIOHandler.addr = alloca ptr, align 8
  %checkSig.addr = alloca i8, align 1
  %extension = alloca %"class.std::__cxx11::basic_string", align 8
  %exn.slot = alloca ptr, align 8
  %ehselector.slot = alloca i32, align 4
  %cleanup.dest.slot = alloca i32, align 4
  %asset = alloca %"class.glTF2::Asset", align 8
  store ptr %this, ptr %this.addr, align 8
  store ptr %filename, ptr %filename.addr, align 8
  store ptr %pIOHandler, ptr %pIOHandler.addr, align 8
  %frombool = zext i1 %checkSig to i8
  store i8 %frombool, ptr %checkSig.addr, align 1
  %0 = load ptr, ptr %filename.addr, align 8
  call void @_ZN6Assimp12BaseImporter12GetExtensionERKNSt7__cxx1112basic_stringIcSt11char_traitsIcESaIcEEE(ptr sret(%"class.std::__cxx11::basic_string") align 8 %extension, ptr noundef nonnull align 8 dereferenceable(32) %0)
  %1 = load i8, ptr %checkSig.addr, align 1
  %tobool = trunc i8 %1 to i1
  br i1 %tobool, label %if.end, label %land.lhs.true

land.lhs.true:                                    ; preds = %entry
  %call = invoke noundef zeroext i1 @_ZStneIcSt11char_traitsIcESaIcEEbRKNSt7__cxx1112basic_stringIT_T0_T1_EEPKS5_(ptr noundef nonnull align 8 dereferenceable(32) %extension, ptr noundef @.str)
          to label %invoke.cont unwind label %lpad

invoke.cont:                                      ; preds = %land.lhs.true
  br i1 %call, label %land.lhs.true2, label %if.end

land.lhs.true2:                                   ; preds = %invoke.cont
  %call4 = invoke noundef zeroext i1 @_ZStneIcSt11char_traitsIcESaIcEEbRKNSt7__cxx1112basic_stringIT_T0_T1_EEPKS5_(ptr noundef nonnull align 8 dereferenceable(32) %extension, ptr noundef @.str.1)
          to label %invoke.cont3 unwind label %lpad

invoke.cont3:                                     ; preds = %land.lhs.true2
  br i1 %call4, label %if.then, label %if.end

if.then:                                          ; preds = %invoke.cont3
  store i1 false, ptr %retval, align 1
  store i32 1, ptr %cleanup.dest.slot, align 4
  br label %cleanup

lpad:                                             ; preds = %if.then6, %land.lhs.true2, %land.lhs.true
  %2 = landingpad { ptr, i32 }
          cleanup
  %3 = extractvalue { ptr, i32 } %2, 0
  store ptr %3, ptr %exn.slot, align 8
  %4 = extractvalue { ptr, i32 } %2, 1
  store i32 %4, ptr %ehselector.slot, align 4
  br label %ehcleanup

if.end:                                           ; preds = %invoke.cont3, %invoke.cont, %entry
  %5 = load ptr, ptr %pIOHandler.addr, align 8
  %tobool5 = icmp ne ptr %5, null
  br i1 %tobool5, label %if.then6, label %if.end13

if.then6:                                         ; preds = %if.end
  %6 = load ptr, ptr %pIOHandler.addr, align 8
  invoke void @_ZN5glTF25AssetC2EPN6Assimp8IOSystemEPN9rapidjson36IGenericRemoteSchemaDocumentProviderINS4_21GenericSchemaDocumentINS4_12GenericValueINS4_4UTF8IcEENS4_19MemoryPoolAllocatorINS4_12CrtAllocatorEEEEESB_EEEE(ptr noundef nonnull align 8 dereferenceable(3272) %asset, ptr noundef %6, ptr noundef null)
          to label %invoke.cont7 unwind label %lpad

invoke.cont7:                                     ; preds = %if.then6
  %7 = load ptr, ptr %filename.addr, align 8
  %8 = load ptr, ptr %pIOHandler.addr, align 8
  %9 = load ptr, ptr %filename.addr, align 8
  %call10 = invoke noundef zeroext i1 @_ZN6Assimp12BaseImporter15CheckMagicTokenEPNS_8IOSystemERKNSt7__cxx1112basic_stringIcSt11char_traitsIcESaIcEEEPKvmjj(ptr noundef %8, ptr noundef nonnull align 8 dereferenceable(32) %9, ptr noundef @.str.2, i64 noundef 1, i32 noundef 0, i32 noundef 4)
          to label %invoke.cont9 unwind label %lpad8

invoke.cont9:                                     ; preds = %invoke.cont7
  %call12 = invoke noundef zeroext i1 @_ZN5glTF25Asset7CanReadERKNSt7__cxx1112basic_stringIcSt11char_traitsIcESaIcEEEb(ptr noundef nonnull align 8 dereferenceable(3272) %asset, ptr noundef nonnull align 8 dereferenceable(32) %7, i1 noundef zeroext %call10)
          to label %invoke.cont11 unwind label %lpad8

invoke.cont11:                                    ; preds = %invoke.cont9
  store i1 %call12, ptr %retval, align 1
  store i32 1, ptr %cleanup.dest.slot, align 4
  call void @_ZN5glTF25AssetD2Ev(ptr noundef nonnull align 8 dereferenceable(3272) %asset) #10
  br label %cleanup

lpad8:                                            ; preds = %invoke.cont9, %invoke.cont7
  %10 = landingpad { ptr, i32 }
          cleanup
  %11 = extractvalue { ptr, i32 } %10, 0
  store ptr %11, ptr %exn.slot, align 8
  %12 = extractvalue { ptr, i32 } %10, 1
  store i32 %12, ptr %ehselector.slot, align 4
  call void @_ZN5glTF25AssetD2Ev(ptr noundef nonnull align 8 dereferenceable(3272) %asset) #10
  br label %ehcleanup

if.end13:                                         ; preds = %if.end
  store i1 false, ptr %retval, align 1
  store i32 1, ptr %cleanup.dest.slot, align 4
  br label %cleanup

cleanup:                                          ; preds = %if.end13, %invoke.cont11, %if.then
  call void @_ZNSt7__cxx1112basic_stringIcSt11char_traitsIcESaIcEED1Ev(ptr noundef nonnull align 8 dereferenceable(32) %extension) #10
  %13 = load i1, ptr %retval, align 1
  ret i1 %13

ehcleanup:                                        ; preds = %lpad8, %lpad
  call void @_ZNSt7__cxx1112basic_stringIcSt11char_traitsIcESaIcEED1Ev(ptr noundef nonnull align 8 dereferenceable(32) %extension) #10
  br label %eh.resume

eh.resume:                                        ; preds = %ehcleanup
  %exn = load ptr, ptr %exn.slot, align 8
  %sel = load i32, ptr %ehselector.slot, align 4
  %lpad.val = insertvalue { ptr, i32 } poison, ptr %exn, 0
  %lpad.val14 = insertvalue { ptr, i32 } %lpad.val, i32 %sel, 1
  resume { ptr, i32 } %lpad.val14
}