; Function Attrs: mustprogress uwtable
define hidden noundef zeroext i1 @_ZNK6Assimp13glTF2Importer7CanReadERKNSt7__cxx1112basic_stringIcSt11char_traitsIcESaIcEEEPNS_8IOSystemEb(ptr nocapture nonnull readnone align 8 %this, ptr noundef nonnull align 8 dereferenceable(32) %filename, ptr noundef %pIOHandler, i1 noundef zeroext %checkSig) unnamed_addr #4 align 2 personality ptr @__gxx_personality_v0 {
entry:
  %extension = alloca %"class.std::__cxx11::basic_string", align 8
  %asset = alloca %"class.glTF2::Asset", align 8
  call void @_ZN6Assimp12BaseImporter12GetExtensionERKNSt7__cxx1112basic_stringIcSt11char_traitsIcESaIcEEE(ptr nonnull sret(%"class.std::__cxx11::basic_string") align 8 %extension, ptr noundef nonnull align 8 dereferenceable(32) %filename)
  br i1 %checkSig, label %if.end, label %land.lhs.true

land.lhs.true:                                    ; preds = %entry
  %call.i.i = call noundef i32 @_ZNKSt7__cxx1112basic_stringIcSt11char_traitsIcESaIcEE7compareEPKc(ptr noundef nonnull align 8 dereferenceable(32) %extension, ptr noundef nonnull @.str) #33
  %cmp.i.i.not = icmp eq i32 %call.i.i, 0
  br i1 %cmp.i.i.not, label %if.end, label %land.lhs.true2

land.lhs.true2:                                   ; preds = %land.lhs.true
  %call.i.i6 = call noundef i32 @_ZNKSt7__cxx1112basic_stringIcSt11char_traitsIcESaIcEE7compareEPKc(ptr noundef nonnull align 8 dereferenceable(32) %extension, ptr noundef nonnull @.str.1) #33
  %cmp.i.i7 = icmp ne i32 %call.i.i6, 0
  %tobool5.not = icmp eq ptr %pIOHandler, null
  %or.cond = or i1 %tobool5.not, %cmp.i.i7
  br i1 %or.cond, label %cleanup, label %if.then6

lpad:                                             ; preds = %if.then6
  %0 = landingpad { ptr, i32 }
          cleanup
  br label %ehcleanup

if.end:                                           ; preds = %land.lhs.true, %entry
  %tobool5.not.old = icmp eq ptr %pIOHandler, null
  br i1 %tobool5.not.old, label %cleanup, label %if.then6

if.then6:                                         ; preds = %land.lhs.true2, %if.end
  invoke void @_ZN5glTF25AssetC2EPN6Assimp8IOSystemEPN9rapidjson36IGenericRemoteSchemaDocumentProviderINS4_21GenericSchemaDocumentINS4_12GenericValueINS4_4UTF8IcEENS4_19MemoryPoolAllocatorINS4_12CrtAllocatorEEEEESB_EEEE(ptr noundef nonnull align 8 dereferenceable(3272) %asset, ptr noundef nonnull %pIOHandler, ptr noundef null)
          to label %invoke.cont7 unwind label %lpad

invoke.cont7:                                     ; preds = %if.then6
  %call10 = invoke noundef zeroext i1 @_ZN6Assimp12BaseImporter15CheckMagicTokenEPNS_8IOSystemERKNSt7__cxx1112basic_stringIcSt11char_traitsIcESaIcEEEPKvmjj(ptr noundef nonnull %pIOHandler, ptr noundef nonnull align 8 dereferenceable(32) %filename, ptr noundef nonnull @.str.2, i64 noundef 1, i32 noundef 0, i32 noundef 4)
          to label %invoke.cont9 unwind label %lpad8

invoke.cont9:                                     ; preds = %invoke.cont7
  %call12 = invoke noundef zeroext i1 @_ZN5glTF25Asset7CanReadERKNSt7__cxx1112basic_stringIcSt11char_traitsIcESaIcEEEb(ptr noundef nonnull align 8 dereferenceable(3272) %asset, ptr noundef nonnull align 8 dereferenceable(32) %filename, i1 noundef zeroext %call10)
          to label %invoke.cont11 unwind label %lpad8

invoke.cont11:                                    ; preds = %invoke.cont9
  call void @_ZN5glTF25AssetD2Ev(ptr noundef nonnull align 8 dereferenceable(3272) %asset) #33
  br label %cleanup

lpad8:                                            ; preds = %invoke.cont9, %invoke.cont7
  %1 = landingpad { ptr, i32 }
          cleanup
  call void @_ZN5glTF25AssetD2Ev(ptr noundef nonnull align 8 dereferenceable(3272) %asset) #33
  br label %ehcleanup

cleanup:                                          ; preds = %if.end, %land.lhs.true2, %invoke.cont11
  %retval.0 = phi i1 [ %call12, %invoke.cont11 ], [ false, %land.lhs.true2 ], [ false, %if.end ]
  call void @_ZNSt7__cxx1112basic_stringIcSt11char_traitsIcESaIcEED1Ev(ptr noundef nonnull align 8 dereferenceable(32) %extension) #33
  ret i1 %retval.0

ehcleanup:                                        ; preds = %lpad8, %lpad
  %.pn = phi { ptr, i32 } [ %1, %lpad8 ], [ %0, %lpad ]
  call void @_ZNSt7__cxx1112basic_stringIcSt11char_traitsIcESaIcEED1Ev(ptr noundef nonnull align 8 dereferenceable(32) %extension) #33
  resume { ptr, i32 } %.pn
}